target datalayout = "e-m:e-p270:32:32-p271:32:32-p272:64:64-i64:64-i128:128-f80:128-n8:16:32:64-S128"
target triple = "x86_64-pc-linux-gnu"

@.str.1 = private unnamed_addr constant [4 x i8] c"\EF\81\93\00", align 1
@.str.2 = private unnamed_addr constant [4 x i8] c"\EF\81\94\00", align 1

; Function Attrs: nounwind uwtable
define internal void @my_constructor(ptr noundef %0, ptr noundef %1) #0 {
  %3 = alloca ptr, align 8
  %4 = alloca ptr, align 8
  %5 = alloca ptr, align 8
  %6 = alloca i32, align 4
  %7 = alloca ptr, align 8
  %8 = alloca ptr, align 8
  store ptr %0, ptr %3, align 8, !tbaa !3
  store ptr %1, ptr %4, align 8, !tbaa !3
  %9 = load ptr, ptr %4, align 8, !tbaa !3
  call void @lv_obj_move_to_index(ptr noundef %9, i32 noundef 0)
  %10 = load ptr, ptr %4, align 8, !tbaa !3
  call void @lv_obj_set_flex_flow(ptr noundef %10, i32 noundef 0)
  %11 = load ptr, ptr %4, align 8, !tbaa !3
  call void @lv_obj_set_flex_align(ptr noundef %11, i32 noundef 0, i32 noundef 2, i32 noundef 0)
  call void @llvm.lifetime.start.p0(i64 8, ptr %5) #4
  %12 = load ptr, ptr %4, align 8, !tbaa !3
  %13 = call ptr @lv_button_create(ptr noundef %12)
  store ptr %13, ptr %5, align 8, !tbaa !3
  %14 = load ptr, ptr %5, align 8, !tbaa !3
  call void @lv_obj_set_style_bg_image_src(ptr noundef %14, ptr noundef @.str.1, i32 noundef 0)
  %15 = load ptr, ptr %5, align 8, !tbaa !3
  %16 = call i32 @lv_pct(i32 noundef 100)
  call void @lv_obj_set_height(ptr noundef %15, i32 noundef %16)
  %17 = load ptr, ptr %5, align 8, !tbaa !3
  call void @lv_obj_update_layout(ptr noundef %17)
  call void @llvm.lifetime.start.p0(i64 4, ptr %6) #4
  %18 = load ptr, ptr %5, align 8, !tbaa !3
  %19 = call i32 @lv_obj_get_height(ptr noundef %18)
  store i32 %19, ptr %6, align 4, !tbaa !7
  %20 = load ptr, ptr %5, align 8, !tbaa !3
  %21 = load i32, ptr %6, align 4, !tbaa !7
  call void @lv_obj_set_width(ptr noundef %20, i32 noundef %21)
  %22 = load ptr, ptr %5, align 8, !tbaa !3
  %23 = call ptr @lv_obj_add_event_cb(ptr noundef %22, ptr noundef @month_event_cb, i32 noundef 10, ptr noundef null)
  %24 = load ptr, ptr %5, align 8, !tbaa !3
  call void @lv_obj_remove_flag(ptr noundef %24, i32 noundef 4)
  call void @llvm.lifetime.start.p0(i64 8, ptr %7) #4
  %25 = load ptr, ptr %4, align 8, !tbaa !3
  %26 = call ptr @lv_label_create(ptr noundef %25)
  store ptr %26, ptr %7, align 8, !tbaa !3
  %27 = load ptr, ptr %7, align 8, !tbaa !3
  call void @lv_label_set_long_mode(ptr noundef %27, i32 noundef 3)
  %28 = load ptr, ptr %7, align 8, !tbaa !3
  call void @lv_obj_set_style_text_align(ptr noundef %28, i32 noundef 2, i32 noundef 0)
  %29 = load ptr, ptr %7, align 8, !tbaa !3
  call void @lv_obj_set_flex_grow(ptr noundef %29, i8 noundef zeroext 1)
  call void @llvm.lifetime.start.p0(i64 8, ptr %8) #4
  %30 = load ptr, ptr %4, align 8, !tbaa !3
  %31 = call ptr @lv_button_create(ptr noundef %30)
  store ptr %31, ptr %8, align 8, !tbaa !3
  %32 = load ptr, ptr %8, align 8, !tbaa !3
  call void @lv_obj_set_style_bg_image_src(ptr noundef %32, ptr noundef @.str.2, i32 noundef 0)
  %33 = load ptr, ptr %8, align 8, !tbaa !3
  %34 = load i32, ptr %6, align 4, !tbaa !7
  %35 = load i32, ptr %6, align 4, !tbaa !7
  call void @lv_obj_set_size(ptr noundef %33, i32 noundef %34, i32 noundef %35)
  %36 = load ptr, ptr %8, align 8, !tbaa !3
  %37 = call ptr @lv_obj_add_event_cb(ptr noundef %36, ptr noundef @month_event_cb, i32 noundef 10, ptr noundef null)
  %38 = load ptr, ptr %8, align 8, !tbaa !3
  call void @lv_obj_remove_flag(ptr noundef %38, i32 noundef 4)
  %39 = load ptr, ptr %4, align 8, !tbaa !3
  %40 = call ptr @lv_obj_add_event_cb(ptr noundef %39, ptr noundef @value_changed_event_cb, i32 noundef 35, ptr noundef null)
  %41 = load ptr, ptr %4, align 8, !tbaa !3
  %42 = call i32 @lv_obj_send_event(ptr noundef %41, i32 noundef 35, ptr noundef null)
  call void @llvm.lifetime.end.p0(i64 8, ptr %8) #4
  call void @llvm.lifetime.end.p0(i64 8, ptr %7) #4
  call void @llvm.lifetime.end.p0(i64 4, ptr %6) #4
  call void @llvm.lifetime.end.p0(i64 8, ptr %5) #4
  ret void
}