; Function Attrs: nounwind uwtable
define internal void @my_constructor(ptr nocapture readnone %0, ptr noundef %1) #0 {
  tail call void @lv_obj_move_to_index(ptr noundef %1, i32 noundef 0) #2
  tail call void @lv_obj_set_flex_flow(ptr noundef %1, i32 noundef 0) #2
  tail call void @lv_obj_set_flex_align(ptr noundef %1, i32 noundef 0, i32 noundef 2, i32 noundef 0) #2
  %3 = tail call ptr @lv_button_create(ptr noundef %1) #2
  tail call void @lv_obj_set_style_bg_image_src(ptr noundef %3, ptr noundef nonnull @.str.1, i32 noundef 0) #2
  %4 = tail call i32 @lv_pct(i32 noundef 100) #2
  tail call void @lv_obj_set_height(ptr noundef %3, i32 noundef %4) #2
  tail call void @lv_obj_update_layout(ptr noundef %3) #2
  %5 = tail call i32 @lv_obj_get_height(ptr noundef %3) #2
  tail call void @lv_obj_set_width(ptr noundef %3, i32 noundef %5) #2
  %6 = tail call ptr @lv_obj_add_event_cb(ptr noundef %3, ptr noundef nonnull @month_event_cb, i32 noundef 10, ptr noundef null) #2
  tail call void @lv_obj_remove_flag(ptr noundef %3, i32 noundef 4) #2
  %7 = tail call ptr @lv_label_create(ptr noundef %1) #2
  tail call void @lv_label_set_long_mode(ptr noundef %7, i32 noundef 3) #2
  tail call void @lv_obj_set_style_text_align(ptr noundef %7, i32 noundef 2, i32 noundef 0) #2
  tail call void @lv_obj_set_flex_grow(ptr noundef %7, i8 noundef zeroext 1) #2
  %8 = tail call ptr @lv_button_create(ptr noundef %1) #2
  tail call void @lv_obj_set_style_bg_image_src(ptr noundef %8, ptr noundef nonnull @.str.2, i32 noundef 0) #2
  tail call void @lv_obj_set_size(ptr noundef %8, i32 noundef %5, i32 noundef %5) #2
  %9 = tail call ptr @lv_obj_add_event_cb(ptr noundef %8, ptr noundef nonnull @month_event_cb, i32 noundef 10, ptr noundef null) #2
  tail call void @lv_obj_remove_flag(ptr noundef %8, i32 noundef 4) #2
  %10 = tail call ptr @lv_obj_add_event_cb(ptr noundef %1, ptr noundef nonnull @value_changed_event_cb, i32 noundef 35, ptr noundef null) #2
  %11 = tail call i32 @lv_obj_send_event(ptr noundef %1, i32 noundef 35, ptr noundef null) #2
  ret void
}